; ModuleID = '19/1228.c'
source_filename = "19/1228.c"
target datalayout = "e-m:e-p270:32:32-p271:32:32-p272:64:64-i64:64-f80:128-n8:16:32:64-S128"
target triple = "x86_64-pc-linux-gnu"

@.str = private unnamed_addr constant [6 x i8] c"%s\0A%s\00", align 1
@.str.1 = private unnamed_addr constant [3 x i8] c"%s\00", align 1
@.str.2 = private unnamed_addr constant [4 x i8] c" %s\00", align 1

; Function Attrs: noinline nounwind uwtable
define dso_local i32 @main() #0 {
  %1 = alloca i32, align 4
  %2 = alloca [200 x i8*], align 16
  %3 = alloca i8*, align 8
  %4 = alloca i8*, align 8
  %5 = alloca i32, align 4
  %6 = alloca i32, align 4
  %7 = alloca i32, align 4
  store i32 0, i32* %1, align 4
  store i32 0, i32* %5, align 4
  store i32 0, i32* %5, align 4
  br label %8

8:                                                ; preds = %16, %0
  %9 = load i32, i32* %5, align 4
  %10 = icmp slt i32 %9, 200
  br i1 %10, label %11, label %19

11:                                               ; preds = %8
  %12 = call noalias i8* @malloc(i64 100) #4
  %13 = load i32, i32* %5, align 4
  %14 = sext i32 %13 to i64
  %15 = getelementptr inbounds [200 x i8*], [200 x i8*]* %2, i64 0, i64 %14
  store i8* %12, i8** %15, align 8
  br label %16

16:                                               ; preds = %11
  %17 = load i32, i32* %5, align 4
  %18 = add nsw i32 %17, 1
  store i32 %18, i32* %5, align 4
  br label %8

19:                                               ; preds = %8
  store i32 0, i32* %5, align 4
  store i32 0, i32* %7, align 4
  br label %20

20:                                               ; preds = %54, %19
  %21 = call i32 @getchar()
  %22 = trunc i32 %21 to i8
  %23 = load i32, i32* %5, align 4
  %24 = sext i32 %23 to i64
  %25 = getelementptr inbounds [200 x i8*], [200 x i8*]* %2, i64 0, i64 %24
  %26 = load i8*, i8** %25, align 8
  %27 = load i32, i32* %7, align 4
  %28 = sext i32 %27 to i64
  %29 = getelementptr inbounds i8, i8* %26, i64 %28
  store i8 %22, i8* %29, align 1
  %30 = sext i8 %22 to i32
  %31 = icmp ne i32 %30, 10
  br i1 %31, label %32, label %57

32:                                               ; preds = %20
  %33 = load i32, i32* %5, align 4
  %34 = sext i32 %33 to i64
  %35 = getelementptr inbounds [200 x i8*], [200 x i8*]* %2, i64 0, i64 %34
  %36 = load i8*, i8** %35, align 8
  %37 = load i32, i32* %7, align 4
  %38 = sext i32 %37 to i64
  %39 = getelementptr inbounds i8, i8* %36, i64 %38
  %40 = load i8, i8* %39, align 1
  %41 = sext i8 %40 to i32
  %42 = icmp eq i32 %41, 32
  br i1 %42, label %43, label %53

43:                                               ; preds = %32
  %44 = load i32, i32* %5, align 4
  %45 = sext i32 %44 to i64
  %46 = getelementptr inbounds [200 x i8*], [200 x i8*]* %2, i64 0, i64 %45
  %47 = load i8*, i8** %46, align 8
  %48 = load i32, i32* %7, align 4
  %49 = sext i32 %48 to i64
  %50 = getelementptr inbounds i8, i8* %47, i64 %49
  store i8 0, i8* %50, align 1
  %51 = load i32, i32* %5, align 4
  %52 = add nsw i32 %51, 1
  store i32 %52, i32* %5, align 4
  store i32 -1, i32* %7, align 4
  br label %53

53:                                               ; preds = %43, %32
  br label %54

54:                                               ; preds = %53
  %55 = load i32, i32* %7, align 4
  %56 = add nsw i32 %55, 1
  store i32 %56, i32* %7, align 4
  br label %20

57:                                               ; preds = %20
  %58 = load i32, i32* %5, align 4
  %59 = sext i32 %58 to i64
  %60 = getelementptr inbounds [200 x i8*], [200 x i8*]* %2, i64 0, i64 %59
  %61 = load i8*, i8** %60, align 8
  %62 = load i32, i32* %7, align 4
  %63 = sext i32 %62 to i64
  %64 = getelementptr inbounds i8, i8* %61, i64 %63
  store i8 0, i8* %64, align 1
  %65 = load i32, i32* %5, align 4
  store i32 %65, i32* %6, align 4
  %66 = call noalias i8* @malloc(i64 100) #4
  store i8* %66, i8** %3, align 8
  %67 = call noalias i8* @malloc(i64 100) #4
  store i8* %67, i8** %4, align 8
  %68 = load i8*, i8** %3, align 8
  %69 = load i8*, i8** %4, align 8
  %70 = call i32 (i8*, ...) @__isoc99_scanf(i8* getelementptr inbounds ([6 x i8], [6 x i8]* @.str, i64 0, i64 0), i8* %68, i8* %69)
  store i32 0, i32* %5, align 4
  br label %71

71:                                               ; preds = %91, %57
  %72 = load i32, i32* %5, align 4
  %73 = load i32, i32* %6, align 4
  %74 = icmp sle i32 %72, %73
  br i1 %74, label %75, label %94

75:                                               ; preds = %71
  %76 = load i32, i32* %5, align 4
  %77 = sext i32 %76 to i64
  %78 = getelementptr inbounds [200 x i8*], [200 x i8*]* %2, i64 0, i64 %77
  %79 = load i8*, i8** %78, align 8
  %80 = load i8*, i8** %3, align 8
  %81 = call i32 @strcmp(i8* %79, i8* %80) #5
  %82 = icmp eq i32 %81, 0
  br i1 %82, label %83, label %90

83:                                               ; preds = %75
  %84 = load i32, i32* %5, align 4
  %85 = sext i32 %84 to i64
  %86 = getelementptr inbounds [200 x i8*], [200 x i8*]* %2, i64 0, i64 %85
  %87 = load i8*, i8** %86, align 8
  %88 = load i8*, i8** %4, align 8
  %89 = call i8* @strcpy(i8* %87, i8* %88) #4
  br label %90

90:                                               ; preds = %83, %75
  br label %91

91:                                               ; preds = %90
  %92 = load i32, i32* %5, align 4
  %93 = add nsw i32 %92, 1
  store i32 %93, i32* %5, align 4
  br label %71

94:                                               ; preds = %71
  %95 = getelementptr inbounds [200 x i8*], [200 x i8*]* %2, i64 0, i64 0
  %96 = load i8*, i8** %95, align 16
  %97 = call i32 (i8*, ...) @printf(i8* getelementptr inbounds ([3 x i8], [3 x i8]* @.str.1, i64 0, i64 0), i8* %96)
  store i32 1, i32* %5, align 4
  br label %98

98:                                               ; preds = %108, %94
  %99 = load i32, i32* %5, align 4
  %100 = load i32, i32* %6, align 4
  %101 = icmp sle i32 %99, %100
  br i1 %101, label %102, label %111

102:                                              ; preds = %98
  %103 = load i32, i32* %5, align 4
  %104 = sext i32 %103 to i64
  %105 = getelementptr inbounds [200 x i8*], [200 x i8*]* %2, i64 0, i64 %104
  %106 = load i8*, i8** %105, align 8
  %107 = call i32 (i8*, ...) @printf(i8* getelementptr inbounds ([4 x i8], [4 x i8]* @.str.2, i64 0, i64 0), i8* %106)
  br label %108

108:                                              ; preds = %102
  %109 = load i32, i32* %5, align 4
  %110 = add nsw i32 %109, 1
  store i32 %110, i32* %5, align 4
  br label %98

111:                                              ; preds = %98
  ret i32 0
}

; Function Attrs: nounwind
declare dso_local noalias i8* @malloc(i64) #1

declare dso_local i32 @getchar() #2

declare dso_local i32 @__isoc99_scanf(i8*, ...) #2

; Function Attrs: nounwind readonly
declare dso_local i32 @strcmp(i8*, i8*) #3

; Function Attrs: nounwind
declare dso_local i8* @strcpy(i8*, i8*) #1

declare dso_local i32 @printf(i8*, ...) #2


!llvm.module.flags = !{!0}
!llvm.ident = !{!1}

!0 = !{i32 1, !"wchar_size", i32 4}
!1 = !{!"clang version 10.0.0-4ubuntu1 "}
